target datalayout = "e-m:e-p270:32:32-p271:32:32-p272:64:64-i64:64-i128:128-f80:128-n8:16:32:64-S128"
target triple = "x86_64-pc-linux-gnu"

%struct.AVChannelLayout = type { i32, i32, %union.anon, ptr }
%union.anon = type { i64 }
%struct.AVCodecContext = type { ptr, i32, i32, ptr, i32, i32, ptr, ptr, ptr, i64, i32, i32, ptr, i32, %struct.AVRational, %struct.AVRational, %struct.AVRational, i32, i32, i32, i32, i32, %struct.AVRational, i32, i32, i32, i32, i32, i32, i32, i32, i32, i32, i32, ptr, ptr, i32, float, float, float, float, float, float, float, float, float, i32, i32, i32, i32, i32, i32, i32, i32, i32, i32, i32, i32, ptr, ptr, ptr, i32, i32, i32, i32, i32, i32, i32, i32, i32, i32, %struct.AVChannelLayout, i32, i32, i32, i32, i32, i32, i32, i32, ptr, i32, i32, i32, float, float, i32, i32, i32, i32, i32, ptr, i64, i64, float, float, i32, i32, ptr, ptr, i32, i32, i32, i32, i32, ptr, ptr, ptr, ptr, i32, i32, [8 x i64], i32, i32, i32, i32, i32, i32, i32, ptr, ptr, i32, i32, i32, i32, i32, i32, i32, i32, i32, i32, ptr, ptr, i32, i32, ptr, ptr, ptr, ptr, i32, i32, i64, i32, i32, i64, ptr, i64, ptr, i32, ptr, i32 }
%struct.AVRational = type { i32, i32 }
%struct.OpusEncContext = type { ptr, %struct.OpusEncOptions, %struct.OpusPsyContext, ptr, %struct.AudioFrameQueue, ptr, [4 x ptr], [4 x ptr], ptr, %struct.FFBufQueue, [64 x i8], i32, %struct.OpusPacketInfo, i32, ptr, ptr, [2 x [21 x float]], [8 x i8], [2048 x float] }
%struct.OpusEncOptions = type { float, i32 }
%struct.OpusPsyContext = type { ptr, ptr, ptr, ptr, [2 x [21 x %struct.OpusBandExcitation]], [2 x [21 x %struct.FFBesselFilter]], [2 x [21 x %struct.FFBesselFilter]], [146 x ptr], i32, [4 x ptr], [4 x ptr], [4 x ptr], i32, [12 x i8], [2048 x float], float, i64, i64, %struct.OpusPacketInfo, i32, i32, i32, float, ptr, i32, [12 x i8] }
%struct.OpusBandExcitation = type { float, float, float }
%struct.FFBesselFilter = type { [3 x float], [2 x float], [3 x float], [3 x float] }
%struct.AudioFrameQueue = type { ptr, i32, i32, ptr, i32, i32 }
%struct.FFBufQueue = type { [145 x ptr], i16, i16 }
%struct.OpusPacketInfo = type { i32, i32, i32, i32 }
%struct.AVFrame = type { [8 x ptr], [8 x i32], ptr, i32, i32, i32, i32, i32, %struct.AVRational, i64, i64, %struct.AVRational, i32, ptr, i32, i32, [8 x ptr], ptr, i32, ptr, i32, i32, i32, i32, i32, i32, i32, i64, ptr, i32, ptr, ptr, i64, i64, i64, i64, ptr, %struct.AVChannelLayout, i64 }

; Function Attrs: nounwind uwtable
define internal ptr @spawn_empty_frame(ptr noundef %0) #1 {
  %2 = alloca ptr, align 8
  %3 = alloca ptr, align 8
  %4 = alloca ptr, align 8
  %5 = alloca i32, align 4
  %6 = alloca i32, align 4
  %7 = alloca i32, align 4
  %8 = alloca i64, align 8
  store ptr %0, ptr %3, align 8, !tbaa !29
  call void @llvm.lifetime.start.p0(i64 8, ptr %4) #11
  %9 = call ptr @av_frame_alloc()
  store ptr %9, ptr %4, align 8, !tbaa !79
  call void @llvm.lifetime.start.p0(i64 4, ptr %5) #11
  %10 = load ptr, ptr %4, align 8, !tbaa !79
  %11 = icmp ne ptr %10, null
  br i1 %11, label %13, label %12

12:                                               ; preds = %1
  store ptr null, ptr %2, align 8
  store i32 1, ptr %6, align 4
  br label %75

13:                                               ; preds = %1
  %14 = load ptr, ptr %3, align 8, !tbaa !29
  %15 = getelementptr inbounds nuw %struct.OpusEncContext, ptr %14, i32 0, i32 3
  %16 = load ptr, ptr %15, align 16, !tbaa !31
  %17 = getelementptr inbounds nuw %struct.AVCodecContext, ptr %16, i32 0, i32 70
  %18 = load i32, ptr %17, align 4, !tbaa !99
  %19 = load ptr, ptr %4, align 8, !tbaa !79
  %20 = getelementptr inbounds nuw %struct.AVFrame, ptr %19, i32 0, i32 6
  store i32 %18, ptr %20, align 4, !tbaa !100
  %21 = load ptr, ptr %3, align 8, !tbaa !29
  %22 = getelementptr inbounds nuw %struct.OpusEncContext, ptr %21, i32 0, i32 3
  %23 = load ptr, ptr %22, align 16, !tbaa !31
  %24 = getelementptr inbounds nuw %struct.AVCodecContext, ptr %23, i32 0, i32 72
  %25 = load i32, ptr %24, align 8, !tbaa !48
  %26 = load ptr, ptr %4, align 8, !tbaa !79
  %27 = getelementptr inbounds nuw %struct.AVFrame, ptr %26, i32 0, i32 5
  store i32 %25, ptr %27, align 8, !tbaa !105
  %28 = load ptr, ptr %4, align 8, !tbaa !79
  %29 = getelementptr inbounds nuw %struct.AVFrame, ptr %28, i32 0, i32 37
  %30 = load ptr, ptr %3, align 8, !tbaa !29
  %31 = getelementptr inbounds nuw %struct.OpusEncContext, ptr %30, i32 0, i32 3
  %32 = load ptr, ptr %31, align 16, !tbaa !31
  %33 = getelementptr inbounds nuw %struct.AVCodecContext, ptr %32, i32 0, i32 71
  %34 = call i32 @av_channel_layout_copy(ptr noundef %29, ptr noundef %33)
  store i32 %34, ptr %5, align 4, !tbaa !52
  %35 = load i32, ptr %5, align 4, !tbaa !52
  %36 = icmp slt i32 %35, 0
  br i1 %36, label %37, label %38

37:                                               ; preds = %13
  call void @av_frame_free(ptr noundef %4)
  store ptr null, ptr %2, align 8
  store i32 1, ptr %6, align 4
  br label %75

38:                                               ; preds = %13
  %39 = load ptr, ptr %4, align 8, !tbaa !79
  %40 = call i32 @av_frame_get_buffer(ptr noundef %39, i32 noundef 4)
  %41 = icmp ne i32 %40, 0
  br i1 %41, label %42, label %43

42:                                               ; preds = %38
  call void @av_frame_free(ptr noundef %4)
  store ptr null, ptr %2, align 8
  store i32 1, ptr %6, align 4
  br label %75

43:                                               ; preds = %38
  call void @llvm.lifetime.start.p0(i64 4, ptr %7) #11
  store i32 0, ptr %7, align 4, !tbaa !52
  br label %44

44:                                               ; preds = %70, %43
  %45 = load i32, ptr %7, align 4, !tbaa !52
  %46 = load ptr, ptr %3, align 8, !tbaa !29
  %47 = getelementptr inbounds nuw %struct.OpusEncContext, ptr %46, i32 0, i32 13
  %48 = load i32, ptr %47, align 4, !tbaa !47
  %49 = icmp slt i32 %45, %48
  br i1 %49, label %51, label %50

50:                                               ; preds = %44
  store i32 2, ptr %6, align 4
  call void @llvm.lifetime.end.p0(i64 4, ptr %7) #11
  br label %73

51:                                               ; preds = %44
  call void @llvm.lifetime.start.p0(i64 8, ptr %8) #11
  %52 = load ptr, ptr %4, align 8, !tbaa !79
  %53 = getelementptr inbounds nuw %struct.AVFrame, ptr %52, i32 0, i32 6
  %54 = load i32, ptr %53, align 4, !tbaa !100
  %55 = call i32 @av_get_bytes_per_sample(i32 noundef %54)
  %56 = sext i32 %55 to i64
  store i64 %56, ptr %8, align 8, !tbaa !53
  %57 = load ptr, ptr %4, align 8, !tbaa !79
  %58 = getelementptr inbounds nuw %struct.AVFrame, ptr %57, i32 0, i32 2
  %59 = load ptr, ptr %58, align 8, !tbaa !106
  %60 = load i32, ptr %7, align 4, !tbaa !52
  %61 = sext i32 %60 to i64
  %62 = getelementptr inbounds ptr, ptr %59, i64 %61
  %63 = load ptr, ptr %62, align 8, !tbaa !92
  %64 = load i64, ptr %8, align 8, !tbaa !53
  %65 = load ptr, ptr %4, align 8, !tbaa !79
  %66 = getelementptr inbounds nuw %struct.AVFrame, ptr %65, i32 0, i32 5
  %67 = load i32, ptr %66, align 8, !tbaa !105
  %68 = sext i32 %67 to i64
  %69 = mul i64 %64, %68
  call void @llvm.memset.p0.i64(ptr align 1 %63, i8 0, i64 %69, i1 false)
  call void @llvm.lifetime.end.p0(i64 8, ptr %8) #11
  br label %70

70:                                               ; preds = %51
  %71 = load i32, ptr %7, align 4, !tbaa !52
  %72 = add nsw i32 %71, 1
  store i32 %72, ptr %7, align 4, !tbaa !52
  br label %44, !llvm.loop !107

73:                                               ; preds = %50
  %74 = load ptr, ptr %4, align 8, !tbaa !79
  store ptr %74, ptr %2, align 8
  store i32 1, ptr %6, align 4
  br label %75

75:                                               ; preds = %73, %42, %37, %12
  call void @llvm.lifetime.end.p0(i64 4, ptr %5) #11
  call void @llvm.lifetime.end.p0(i64 8, ptr %4) #11
  %76 = load ptr, ptr %2, align 8
  ret ptr %76
}