; Function Attrs: nounwind uwtable
define internal fastcc ptr @spawn_empty_frame(ptr noundef readonly captures(none) %0) unnamed_addr #1 {
  %2 = alloca ptr, align 8
  call void @llvm.lifetime.start.p0(i64 8, ptr nonnull %2) #9
  %3 = tail call ptr @av_frame_alloc() #9
  store ptr %3, ptr %2, align 8, !tbaa !59
  %.not = icmp eq ptr %3, null
  br i1 %.not, label %._crit_edge, label %4

4:                                                ; preds = %1
  %5 = getelementptr inbounds nuw i8, ptr %0, i64 13808
  %6 = load ptr, ptr %5, align 16, !tbaa !27
  %7 = getelementptr inbounds nuw i8, ptr %6, i64 348
  %8 = load i32, ptr %7, align 4, !tbaa !140
  %9 = getelementptr inbounds nuw i8, ptr %3, i64 116
  store i32 %8, ptr %9, align 4, !tbaa !89
  %10 = getelementptr inbounds nuw i8, ptr %6, i64 376
  %11 = load i32, ptr %10, align 8, !tbaa !45
  %12 = getelementptr inbounds nuw i8, ptr %3, i64 112
  store i32 %11, ptr %12, align 8, !tbaa !90
  %13 = getelementptr inbounds nuw i8, ptr %3, i64 384
  %14 = getelementptr inbounds nuw i8, ptr %6, i64 352
  %15 = tail call i32 @av_channel_layout_copy(ptr noundef nonnull %13, ptr noundef nonnull %14) #9
  %16 = icmp slt i32 %15, 0
  br i1 %16, label %._crit_edge.sink.split, label %17

17:                                               ; preds = %4
  %18 = tail call i32 @av_frame_get_buffer(ptr noundef nonnull %3, i32 noundef 4) #9
  %.not11 = icmp eq i32 %18, 0
  br i1 %.not11, label %.preheader, label %._crit_edge.sink.split

.preheader:                                       ; preds = %17
  %19 = getelementptr inbounds nuw i8, ptr %0, i64 15180
  %20 = load i32, ptr %19, align 4, !tbaa !44
  %21 = icmp sgt i32 %20, 0
  br i1 %21, label %.lr.ph, label %._crit_edge

.lr.ph:                                           ; preds = %.preheader
  %22 = getelementptr inbounds nuw i8, ptr %3, i64 96
  br label %23

23:                                               ; preds = %.lr.ph, %23
  %indvars.iv = phi i64 [ 0, %.lr.ph ], [ %indvars.iv.next, %23 ]
  %24 = load i32, ptr %9, align 4, !tbaa !89
  %25 = tail call i32 @av_get_bytes_per_sample(i32 noundef %24) #9
  %26 = sext i32 %25 to i64
  %27 = load ptr, ptr %22, align 8, !tbaa !83
  %28 = getelementptr inbounds nuw ptr, ptr %27, i64 %indvars.iv
  %29 = load ptr, ptr %28, align 8, !tbaa !88
  %30 = load i32, ptr %12, align 8, !tbaa !90
  %31 = sext i32 %30 to i64
  %32 = mul nsw i64 %31, %26
  tail call void @llvm.memset.p0.i64(ptr align 1 %29, i8 0, i64 %32, i1 false)
  %indvars.iv.next = add nuw nsw i64 %indvars.iv, 1
  %33 = load i32, ptr %19, align 4, !tbaa !44
  %34 = sext i32 %33 to i64
  %35 = icmp slt i64 %indvars.iv.next, %34
  br i1 %35, label %23, label %._crit_edge, !llvm.loop !141

._crit_edge.sink.split:                           ; preds = %17, %4
  call void @av_frame_free(ptr noundef nonnull %2) #9
  br label %._crit_edge

._crit_edge:                                      ; preds = %23, %._crit_edge.sink.split, %.preheader, %1
  %.0 = phi ptr [ null, %1 ], [ %3, %.preheader ], [ null, %._crit_edge.sink.split ], [ %3, %23 ]
  call void @llvm.lifetime.end.p0(i64 8, ptr nonnull %2) #9
  ret ptr %.0
}